target datalayout = "e-m:e-p270:32:32-p271:32:32-p272:64:64-i64:64-i128:128-f80:128-n8:16:32:64-S128"
target triple = "x86_64-unknown-linux-gnu"

%"class.cvc5::internal::prop::MinisatSatSolver" = type { %"class.cvc5::internal::prop::CDCLTSatSolver", %"class.cvc5::internal::EnvObj", ptr, ptr, %"class.std::unordered_set", %"class.cvc5::internal::prop::MinisatSatSolver::Statistics" }
%"class.cvc5::internal::prop::CDCLTSatSolver" = type { %"class.cvc5::internal::prop::SatSolver" }
%"class.cvc5::internal::prop::SatSolver" = type { ptr }
%"class.cvc5::internal::EnvObj" = type { ptr, ptr }
%"class.std::unordered_set" = type { %"class.std::_Hashtable" }
%"class.std::_Hashtable" = type { ptr, i64, %"struct.std::__detail::_Hash_node_base", i64, %"struct.std::__detail::_Prime_rehash_policy", ptr }
%"struct.std::__detail::_Hash_node_base" = type { ptr }
%"struct.std::__detail::_Prime_rehash_policy" = type { float, i64 }
%"class.cvc5::internal::prop::MinisatSatSolver::Statistics" = type { %"class.cvc5::internal::ReferenceStat", %"class.cvc5::internal::ReferenceStat", %"class.cvc5::internal::ReferenceStat", %"class.cvc5::internal::ReferenceStat", %"class.cvc5::internal::ReferenceStat", %"class.cvc5::internal::ReferenceStat", %"class.cvc5::internal::ReferenceStat", %"class.cvc5::internal::ReferenceStat", %"class.cvc5::internal::ReferenceStat" }
%"class.cvc5::internal::ReferenceStat" = type { ptr }
%"class.cvc5::internal::Minisat::vec.280" = type { ptr, i32, i32 }
%"class.cvc5::internal::Minisat::Solver" = type <{ %"class.cvc5::internal::EnvObj", ptr, ptr, i32, i32, i32, [4 x i8], %"class.std::unique_ptr.270", i8, [7 x i8], %"class.cvc5::internal::Minisat::vec", %"class.cvc5::internal::Minisat::vec.278", i8, i8, [6 x i8], %"class.cvc5::internal::Minisat::vec.279", %"class.cvc5::internal::Minisat::vec.280", i32, [4 x i8], double, double, double, double, i8, [3 x i8], i32, i32, i8, i8, [2 x i8], double, i32, [4 x i8], double, double, double, i32, [4 x i8], double, i64, i64, i64, i64, i64, i64, i64, i64, i64, i64, i64, i64, i8, [7 x i8], %"class.cvc5::internal::Minisat::vec.281", %"class.cvc5::internal::Minisat::vec.281", double, %"class.cvc5::internal::Minisat::vec.282", double, %"class.cvc5::internal::Minisat::OccLists", %"class.cvc5::internal::Minisat::vec.279", %"class.cvc5::internal::Minisat::vec.285", %"class.cvc5::internal::Minisat::vec.284", %"class.cvc5::internal::Minisat::vec.284", %"class.cvc5::internal::Minisat::vec.285", %"class.cvc5::internal::Minisat::vec.280", %"class.cvc5::internal::Minisat::vec.285", %"class.cvc5::internal::Minisat::vec.278", %"class.cvc5::internal::Minisat::vec.286", i32, i32, i64, %"class.cvc5::internal::Minisat::vec.280", %"class.cvc5::internal::Minisat::Heap", double, i8, [7 x i8], %"class.cvc5::internal::Minisat::ClauseAllocator", %"class.cvc5::internal::Minisat::vec.278", %"class.cvc5::internal::Minisat::vec.284", %"class.cvc5::internal::Minisat::vec.280", %"class.cvc5::internal::Minisat::vec.280", %"class.cvc5::internal::Minisat::vec.280", double, double, i32, [4 x i8], i64, i64, i8, i8, [6 x i8] }>
%"class.std::unique_ptr.270" = type { %"struct.std::__uniq_ptr_data.271" }
%"struct.std::__uniq_ptr_data.271" = type { %"class.std::__uniq_ptr_impl.272" }
%"class.std::__uniq_ptr_impl.272" = type { %"class.std::tuple.273" }
%"class.std::tuple.273" = type { %"struct.std::_Tuple_impl.274" }
%"struct.std::_Tuple_impl.274" = type { %"struct.std::_Head_base.277" }
%"struct.std::_Head_base.277" = type { ptr }
%"class.cvc5::internal::Minisat::vec" = type { ptr, i32, i32 }
%"class.cvc5::internal::Minisat::vec.281" = type { ptr, i32, i32 }
%"class.cvc5::internal::Minisat::vec.282" = type { ptr, i32, i32 }
%"class.cvc5::internal::Minisat::OccLists" = type { %"class.cvc5::internal::Minisat::vec.283", %"class.cvc5::internal::Minisat::vec.284", %"class.cvc5::internal::Minisat::vec.280", %"struct.cvc5::internal::Minisat::Solver::WatcherDeleted" }
%"class.cvc5::internal::Minisat::vec.283" = type { ptr, i32, i32 }
%"struct.cvc5::internal::Minisat::Solver::WatcherDeleted" = type { ptr }
%"class.cvc5::internal::Minisat::vec.279" = type { ptr, i32, i32 }
%"class.cvc5::internal::Minisat::vec.285" = type { ptr, i32, i32 }
%"class.cvc5::internal::Minisat::vec.286" = type { ptr, i32, i32 }
%"class.cvc5::internal::Minisat::Heap" = type { %"struct.cvc5::internal::Minisat::Solver::VarOrderLt", %"class.cvc5::internal::Minisat::vec.285", %"class.cvc5::internal::Minisat::vec.285" }
%"struct.cvc5::internal::Minisat::Solver::VarOrderLt" = type { ptr }
%"class.cvc5::internal::Minisat::ClauseAllocator" = type { %"class.cvc5::internal::Minisat::RegionAllocator.base", i8, [3 x i8] }
%"class.cvc5::internal::Minisat::RegionAllocator.base" = type <{ ptr, i32, i32, i32 }>
%"class.cvc5::internal::Minisat::vec.278" = type { ptr, i32, i32 }
%"class.cvc5::internal::Minisat::vec.284" = type { ptr, i32, i32 }
%"struct.cvc5::internal::Minisat::Solver::VarData" = type { i32, i32, i32, i32, i32 }

; Function Attrs: mustprogress nounwind uwtable
define linkonce_odr hidden noundef nonnull align 4 dereferenceable(20) ptr @_ZNK4cvc58internal7Minisat3vecINS1_6Solver7VarDataEEixEi(ptr noundef nonnull align 8 dereferenceable(16) %this, i32 noundef %index) #4 comdat align 2 {
entry:
  %this.addr = alloca ptr, align 8
  %index.addr = alloca i32, align 4
  store ptr %this, ptr %this.addr, align 8
  store i32 %index, ptr %index.addr, align 4
  %this1 = load ptr, ptr %this.addr, align 8
  %data = getelementptr inbounds %"class.cvc5::internal::Minisat::vec.286", ptr %this1, i32 0, i32 0
  %0 = load ptr, ptr %data, align 8
  %1 = load i32, ptr %index.addr, align 4
  %idxprom = sext i32 %1 to i64
  %arrayidx = getelementptr inbounds %"struct.cvc5::internal::Minisat::Solver::VarData", ptr %0, i64 %idxprom
  ret ptr %arrayidx
}

; Function Attrs: mustprogress nounwind uwtable
define linkonce_odr hidden noundef i32 @_ZNK4cvc58internal7Minisat6Solver5levelEi(ptr noundef nonnull align 8 dereferenceable(850) %this, i32 noundef %x) #4 comdat align 2 {
entry:
  %this.addr = alloca ptr, align 8
  %x.addr = alloca i32, align 4
  store ptr %this, ptr %this.addr, align 8
  store i32 %x, ptr %x.addr, align 4
  %this1 = load ptr, ptr %this.addr, align 8
  %vardata = getelementptr inbounds %"class.cvc5::internal::Minisat::Solver", ptr %this1, i32 0, i32 67
  %0 = load i32, ptr %x.addr, align 4
  %call = call noundef nonnull align 4 dereferenceable(20) ptr @_ZNK4cvc58internal7Minisat3vecINS1_6Solver7VarDataEEixEi(ptr noundef nonnull align 8 dereferenceable(16) %vardata, i32 noundef %0)
  %d_level = getelementptr inbounds %"struct.cvc5::internal::Minisat::Solver::VarData", ptr %call, i32 0, i32 1
  %1 = load i32, ptr %d_level, align 4
  ret i32 %1
}

; Function Attrs: mustprogress nounwind uwtable
define linkonce_odr hidden noundef i32 @_ZNK4cvc58internal7Minisat6Solver10user_levelEi(ptr noundef nonnull align 8 dereferenceable(850) %this, i32 noundef %x) #4 comdat align 2 {
entry:
  %this.addr = alloca ptr, align 8
  %x.addr = alloca i32, align 4
  store ptr %this, ptr %this.addr, align 8
  store i32 %x, ptr %x.addr, align 4
  %this1 = load ptr, ptr %this.addr, align 8
  %vardata = getelementptr inbounds %"class.cvc5::internal::Minisat::Solver", ptr %this1, i32 0, i32 67
  %0 = load i32, ptr %x.addr, align 4
  %call = call noundef nonnull align 4 dereferenceable(20) ptr @_ZNK4cvc58internal7Minisat3vecINS1_6Solver7VarDataEEixEi(ptr noundef nonnull align 8 dereferenceable(16) %vardata, i32 noundef %0)
  %d_user_level = getelementptr inbounds %"struct.cvc5::internal::Minisat::Solver::VarData", ptr %call, i32 0, i32 2
  %1 = load i32, ptr %d_user_level, align 4
  ret i32 %1
}

; Function Attrs: mustprogress nounwind uwtable
define linkonce_odr hidden noundef i32 @_ZNK4cvc58internal7Minisat6Solver11intro_levelEi(ptr noundef nonnull align 8 dereferenceable(850) %this, i32 noundef %x) #4 comdat align 2 {
entry:
  %this.addr = alloca ptr, align 8
  %x.addr = alloca i32, align 4
  store ptr %this, ptr %this.addr, align 8
  store i32 %x, ptr %x.addr, align 4
  %this1 = load ptr, ptr %this.addr, align 8
  %vardata = getelementptr inbounds %"class.cvc5::internal::Minisat::Solver", ptr %this1, i32 0, i32 67
  %0 = load i32, ptr %x.addr, align 4
  %call = call noundef nonnull align 4 dereferenceable(20) ptr @_ZNK4cvc58internal7Minisat3vecINS1_6Solver7VarDataEEixEi(ptr noundef nonnull align 8 dereferenceable(16) %vardata, i32 noundef %0)
  %d_intro_level = getelementptr inbounds %"struct.cvc5::internal::Minisat::Solver::VarData", ptr %call, i32 0, i32 3
  %1 = load i32, ptr %d_intro_level, align 4
  ret i32 %1
}

; Function Attrs: mustprogress uwtable
define hidden noundef zeroext i1 @_ZNK4cvc58internal4prop16MinisatSatSolver7isFixedEm(ptr noundef nonnull align 8 dereferenceable(168) %this, i64 noundef %var) unnamed_addr #5 align 2 {
entry:
  %this.addr = alloca ptr, align 8
  %var.addr = alloca i64, align 8
  store ptr %this, ptr %this.addr, align 8
  store i64 %var, ptr %var.addr, align 8
  %this1 = load ptr, ptr %this.addr, align 8
  %d_minisat = getelementptr inbounds %"class.cvc5::internal::prop::MinisatSatSolver", ptr %this1, i32 0, i32 2
  %0 = load ptr, ptr %d_minisat, align 8
  %1 = load i64, ptr %var.addr, align 8
  %conv = trunc i64 %1 to i32
  %call = call noundef i32 @_ZNK4cvc58internal7Minisat6Solver11intro_levelEi(ptr noundef nonnull align 8 dereferenceable(850) %0, i32 noundef %conv)
  %cmp = icmp eq i32 %call, 0
  br i1 %cmp, label %land.lhs.true, label %land.end

land.lhs.true:                                    ; preds = %entry
  %d_minisat2 = getelementptr inbounds %"class.cvc5::internal::prop::MinisatSatSolver", ptr %this1, i32 0, i32 2
  %2 = load ptr, ptr %d_minisat2, align 8
  %3 = load i64, ptr %var.addr, align 8
  %conv3 = trunc i64 %3 to i32
  %call4 = call noundef i32 @_ZNK4cvc58internal7Minisat6Solver10user_levelEi(ptr noundef nonnull align 8 dereferenceable(850) %2, i32 noundef %conv3)
  %cmp5 = icmp eq i32 %call4, 0
  br i1 %cmp5, label %land.rhs, label %land.end

land.rhs:                                         ; preds = %land.lhs.true
  %d_minisat6 = getelementptr inbounds %"class.cvc5::internal::prop::MinisatSatSolver", ptr %this1, i32 0, i32 2
  %4 = load ptr, ptr %d_minisat6, align 8
  %5 = load i64, ptr %var.addr, align 8
  %conv7 = trunc i64 %5 to i32
  %call8 = call noundef i32 @_ZNK4cvc58internal7Minisat6Solver5levelEi(ptr noundef nonnull align 8 dereferenceable(850) %4, i32 noundef %conv7)
  %cmp9 = icmp eq i32 %call8, 0
  br label %land.end

land.end:                                         ; preds = %land.rhs, %land.lhs.true, %entry
  %6 = phi i1 [ false, %land.lhs.true ], [ false, %entry ], [ %cmp9, %land.rhs ]
  ret i1 %6
}