; Function Attrs: mustprogress nofree norecurse nosync nounwind willreturn memory(read, inaccessiblemem: none) uwtable
define hidden noundef zeroext i1 @_ZNK4cvc58internal4prop16MinisatSatSolver7isFixedEm(ptr nocapture noundef nonnull readonly align 8 dereferenceable(168) %this, i64 noundef %var) unnamed_addr #14 align 2 {
entry:
  %d_minisat = getelementptr inbounds i8, ptr %this, i64 24
  %0 = load ptr, ptr %d_minisat, align 8
  %vardata.i = getelementptr inbounds i8, ptr %0, i64 600
  %1 = load ptr, ptr %vardata.i, align 8
  %sext = shl i64 %var, 32
  %idxprom.i.i = ashr exact i64 %sext, 32
  %d_intro_level.i = getelementptr inbounds %"struct.cvc5::internal::Minisat::Solver::VarData", ptr %1, i64 %idxprom.i.i, i32 3
  %2 = load i32, ptr %d_intro_level.i, align 4
  %cmp = icmp eq i32 %2, 0
  br i1 %cmp, label %land.lhs.true, label %land.end

land.lhs.true:                                    ; preds = %entry
  %d_user_level.i = getelementptr inbounds %"struct.cvc5::internal::Minisat::Solver::VarData", ptr %1, i64 %idxprom.i.i, i32 2
  %3 = load i32, ptr %d_user_level.i, align 4
  %cmp5 = icmp eq i32 %3, 0
  br i1 %cmp5, label %land.rhs, label %land.end

land.rhs:                                         ; preds = %land.lhs.true
  %d_level.i = getelementptr inbounds %"struct.cvc5::internal::Minisat::Solver::VarData", ptr %1, i64 %idxprom.i.i, i32 1
  %4 = load i32, ptr %d_level.i, align 4
  %cmp9 = icmp eq i32 %4, 0
  br label %land.end

land.end:                                         ; preds = %land.rhs, %land.lhs.true, %entry
  %5 = phi i1 [ false, %land.lhs.true ], [ false, %entry ], [ %cmp9, %land.rhs ]
  ret i1 %5
}